target datalayout = "e-m:e-p270:32:32-p271:32:32-p272:64:64-i64:64-i128:128-f80:128-n8:16:32:64-S128"
target triple = "x86_64-pc-linux-gnu"

%struct.expert_field = type { i32, i32 }
%struct._packet_info = type { ptr, ptr, i32, i32, %struct.nstime_t, %struct.nstime_t, %struct.nstime_t, i8, ptr, ptr, ptr, ptr, %struct._address, %struct._address, %struct._address, %struct._address, %struct._address, %struct._address, i32, ptr, i8, [3 x i8], %struct.anon, i32, i32, i32, i32, ptr, i8, ptr, ptr, i16, i16, i32, i32, i16, i32, i32, ptr, ptr, ptr, i8, i8, i16, i16, i16, i32, i16, i16, ptr, ptr, ptr, ptr, ptr, i32, i32 }
%struct.nstime_t = type { i64, i32 }
%struct._address = type { i32, i32, ptr, ptr }
%struct.anon = type { i8, [3 x i8] }

@ei_gsm_a_gm_extraneous_data = internal global %struct.expert_field zeroinitializer, align 4
@ei_gsm_a_gm_missing_mandatory_element = internal global %struct.expert_field zeroinitializer, align 4
@.str.1096 = private unnamed_addr constant [64 x i8] c"Missing Mandatory elements %s %s, rest of dissection is suspect\00", align 1

; Function Attrs: null_pointer_is_valid sspstrong uwtable
define internal void @dtap_gmm_detach_req_MT(ptr noundef %0, ptr noundef %1, ptr noundef %2, i32 noundef %3, i32 noundef %4) #1 {
  %6 = alloca ptr, align 8
  %7 = alloca ptr, align 8
  %8 = alloca ptr, align 8
  %9 = alloca i32, align 4
  %10 = alloca i32, align 4
  %11 = alloca i32, align 4
  %12 = alloca i32, align 4
  %13 = alloca i32, align 4
  %14 = alloca i32, align 4
  store ptr %0, ptr %6, align 8
  store ptr %1, ptr %7, align 8
  store ptr %2, ptr %8, align 8
  store i32 %3, ptr %9, align 4
  store i32 %4, ptr %10, align 4
  call void @llvm.lifetime.start.p0(i64 4, ptr %11) #6
  call void @llvm.lifetime.start.p0(i64 4, ptr %12) #6
  call void @llvm.lifetime.start.p0(i64 4, ptr %13) #6
  %15 = load i32, ptr %9, align 4
  store i32 %15, ptr %11, align 4
  %16 = load i32, ptr %10, align 4
  store i32 %16, ptr %13, align 4
  %17 = load ptr, ptr %8, align 8
  %18 = getelementptr inbounds nuw %struct._packet_info, ptr %17, i32 0, i32 37
  store i32 0, ptr %18, align 4
  %19 = load i32, ptr %13, align 4
  %20 = icmp sgt i32 %19, 0
  br i1 %20, label %21, label %36

21:                                               ; preds = %5
  %22 = load ptr, ptr %6, align 8
  %23 = load ptr, ptr %7, align 8
  %24 = load ptr, ptr %8, align 8
  %25 = load i32, ptr %11, align 4
  %26 = call zeroext i16 @elem_v_short(ptr noundef %22, ptr noundef %23, ptr noundef %24, i32 noundef 5, i32 noundef 6, i32 noundef %25, i32 noundef 1)
  %27 = load ptr, ptr %6, align 8
  %28 = load ptr, ptr %7, align 8
  %29 = load ptr, ptr %8, align 8
  %30 = load i32, ptr %11, align 4
  %31 = call zeroext i16 @elem_v_short(ptr noundef %27, ptr noundef %28, ptr noundef %29, i32 noundef 5, i32 noundef 9, i32 noundef %30, i32 noundef 2)
  %32 = load i32, ptr %11, align 4
  %33 = add i32 %32, 1
  store i32 %33, ptr %11, align 4
  %34 = load i32, ptr %13, align 4
  %35 = add i32 %34, -1
  store i32 %35, ptr %13, align 4
  br label %44

36:                                               ; preds = %5
  %37 = load ptr, ptr %7, align 8
  %38 = load ptr, ptr %8, align 8
  %39 = load ptr, ptr %6, align 8
  %40 = load i32, ptr %11, align 4
  %41 = call ptr @get_gsm_a_msg_string(i32 noundef 5, i32 noundef 6)
  %42 = call ptr @get_gsm_a_msg_string(i32 noundef 5, i32 noundef 9)
  %43 = call ptr (ptr, ptr, ptr, ptr, i32, i32, ptr, ...) @proto_tree_add_expert_format(ptr noundef %37, ptr noundef %38, ptr noundef @ei_gsm_a_gm_missing_mandatory_element, ptr noundef %39, i32 noundef %40, i32 noundef 0, ptr noundef @.str.1096, ptr noundef %41, ptr noundef %42)
  br label %44

44:                                               ; preds = %36, %21
  %45 = load i32, ptr %13, align 4
  %46 = icmp sle i32 %45, 0
  br i1 %46, label %47, label %48

47:                                               ; preds = %44
  store i32 1, ptr %14, align 4
  br label %79

48:                                               ; preds = %44
  %49 = load ptr, ptr %6, align 8
  %50 = load ptr, ptr %7, align 8
  %51 = load ptr, ptr %8, align 8
  %52 = load i32, ptr %11, align 4
  %53 = call zeroext i16 @elem_tv(ptr noundef %49, ptr noundef %50, ptr noundef %51, i8 noundef zeroext 37, i32 noundef 5, i32 noundef 17, i32 noundef %52, ptr noundef null)
  %54 = zext i16 %53 to i32
  store i32 %54, ptr %12, align 4
  %55 = icmp ugt i32 %54, 0
  br i1 %55, label %56, label %63

56:                                               ; preds = %48
  %57 = load i32, ptr %12, align 4
  %58 = load i32, ptr %11, align 4
  %59 = add i32 %58, %57
  store i32 %59, ptr %11, align 4
  %60 = load i32, ptr %12, align 4
  %61 = load i32, ptr %13, align 4
  %62 = sub i32 %61, %60
  store i32 %62, ptr %13, align 4
  br label %63

63:                                               ; preds = %56, %48
  %64 = load i32, ptr %13, align 4
  %65 = icmp ugt i32 %64, 0
  br i1 %65, label %66, label %78

66:                                               ; preds = %63
  %67 = load ptr, ptr %7, align 8
  %68 = load ptr, ptr %8, align 8
  %69 = load ptr, ptr %6, align 8
  %70 = load i32, ptr %11, align 4
  %71 = load i32, ptr %13, align 4
  %72 = sub i32 %71, 0
  %73 = call ptr @proto_tree_add_expert(ptr noundef %67, ptr noundef %68, ptr noundef @ei_gsm_a_gm_extraneous_data, ptr noundef %69, i32 noundef %70, i32 noundef %72)
  %74 = load i32, ptr %13, align 4
  %75 = sub i32 %74, 0
  %76 = load i32, ptr %11, align 4
  %77 = add i32 %76, %75
  store i32 %77, ptr %11, align 4
  br label %78

78:                                               ; preds = %66, %63
  store i32 0, ptr %14, align 4
  br label %79

79:                                               ; preds = %78, %47
  call void @llvm.lifetime.end.p0(i64 4, ptr %13) #6
  call void @llvm.lifetime.end.p0(i64 4, ptr %12) #6
  call void @llvm.lifetime.end.p0(i64 4, ptr %11) #6
  %80 = load i32, ptr %14, align 4
  switch i32 %80, label %82 [
    i32 0, label %81
    i32 1, label %81
  ]

81:                                               ; preds = %79, %79
  ret void

82:                                               ; preds = %79
  unreachable
}