; Function Attrs: null_pointer_is_valid sspstrong uwtable
define internal fastcc void @dtap_gmm_detach_req_MT(ptr noundef %0, ptr noundef %1, ptr noundef initializes((348, 352)) %2, i32 noundef %3, i32 noundef %4) unnamed_addr #1 {
  %6 = getelementptr inbounds nuw i8, ptr %2, i64 348
  store i32 0, ptr %6, align 4
  %7 = icmp sgt i32 %4, 0
  br i1 %7, label %11, label %.thread

.thread:                                          ; preds = %5
  %8 = tail call ptr @get_gsm_a_msg_string(i32 noundef 5, i32 noundef 6)
  %9 = tail call ptr @get_gsm_a_msg_string(i32 noundef 5, i32 noundef 9)
  %10 = tail call ptr (ptr, ptr, ptr, ptr, i32, i32, ptr, ...) @proto_tree_add_expert_format(ptr noundef %1, ptr noundef %2, ptr noundef nonnull @ei_gsm_a_gm_missing_mandatory_element, ptr noundef %0, i32 noundef %3, i32 noundef 0, ptr noundef nonnull @.str.1096, ptr noundef %8, ptr noundef %9)
  br label %24

11:                                               ; preds = %5
  %12 = tail call zeroext i16 @elem_v_short(ptr noundef %0, ptr noundef %1, ptr noundef %2, i32 noundef 5, i32 noundef 6, i32 noundef %3, i32 noundef 1)
  %13 = tail call zeroext i16 @elem_v_short(ptr noundef %0, ptr noundef %1, ptr noundef %2, i32 noundef 5, i32 noundef 9, i32 noundef %3, i32 noundef 2)
  %14 = add nsw i32 %4, -1
  %15 = icmp eq i32 %14, 0
  br i1 %15, label %24, label %16

16:                                               ; preds = %11
  %17 = add i32 %3, 1
  %18 = tail call zeroext i16 @elem_tv(ptr noundef %0, ptr noundef %1, ptr noundef %2, i8 noundef zeroext 37, i32 noundef 5, i32 noundef 17, i32 noundef %17, ptr noundef null)
  %19 = zext i16 %18 to i32
  %.not39 = icmp eq i32 %14, %19
  br i1 %.not39, label %24, label %20

20:                                               ; preds = %16
  %21 = sub nsw i32 %14, %19
  %22 = add i32 %17, %19
  %23 = tail call ptr @proto_tree_add_expert(ptr noundef %1, ptr noundef %2, ptr noundef nonnull @ei_gsm_a_gm_extraneous_data, ptr noundef %0, i32 noundef %22, i32 noundef %21)
  br label %24

24:                                               ; preds = %.thread, %16, %20, %11
  ret void
}